target datalayout = "e-m:e-p270:32:32-p271:32:32-p272:64:64-i64:64-i128:128-f80:128-n8:16:32:64-S128"
target triple = "x86_64-unknown-linux-gnu"

; Function Attrs: mustprogress uwtable
define hidden noundef zeroext i1 @_Z6lex_ltjPKP3astS2_(i32 noundef %num, ptr noundef %n1, ptr noundef %n2) #4 {
entry:
  %retval = alloca i1, align 1
  %num.addr = alloca i32, align 4
  %n1.addr = alloca ptr, align 8
  %n2.addr = alloca ptr, align 8
  %i = alloca i32, align 4
  store i32 %num, ptr %num.addr, align 4
  store ptr %n1, ptr %n1.addr, align 8
  store ptr %n2, ptr %n2.addr, align 8
  store i32 0, ptr %i, align 4
  br label %for.cond

for.cond:                                         ; preds = %for.inc, %entry
  %0 = load i32, ptr %i, align 4
  %1 = load i32, ptr %num.addr, align 4
  %cmp = icmp ult i32 %0, %1
  br i1 %cmp, label %for.body, label %for.end

for.body:                                         ; preds = %for.cond
  %2 = load ptr, ptr %n1.addr, align 8
  %3 = load i32, ptr %i, align 4
  %idxprom = zext i32 %3 to i64
  %arrayidx = getelementptr inbounds ptr, ptr %2, i64 %idxprom
  %4 = load ptr, ptr %arrayidx, align 8
  %5 = load ptr, ptr %n2.addr, align 8
  %6 = load i32, ptr %i, align 4
  %idxprom1 = zext i32 %6 to i64
  %arrayidx2 = getelementptr inbounds ptr, ptr %5, i64 %idxprom1
  %7 = load ptr, ptr %arrayidx2, align 8
  %cmp3 = icmp eq ptr %4, %7
  br i1 %cmp3, label %if.then, label %if.end

if.then:                                          ; preds = %for.body
  br label %for.inc

if.end:                                           ; preds = %for.body
  %8 = load ptr, ptr %n1.addr, align 8
  %9 = load i32, ptr %i, align 4
  %idxprom4 = zext i32 %9 to i64
  %arrayidx5 = getelementptr inbounds ptr, ptr %8, i64 %idxprom4
  %10 = load ptr, ptr %arrayidx5, align 8
  %11 = load ptr, ptr %n2.addr, align 8
  %12 = load i32, ptr %i, align 4
  %idxprom6 = zext i32 %12 to i64
  %arrayidx7 = getelementptr inbounds ptr, ptr %11, i64 %idxprom6
  %13 = load ptr, ptr %arrayidx7, align 8
  %call = call noundef zeroext i1 @_Z2ltP3astS0_(ptr noundef %10, ptr noundef %13)
  store i1 %call, ptr %retval, align 1
  br label %return

for.inc:                                          ; preds = %if.then
  %14 = load i32, ptr %i, align 4
  %inc = add i32 %14, 1
  store i32 %inc, ptr %i, align 4
  br label %for.cond, !llvm.loop !13

for.end:                                          ; preds = %for.cond
  store i1 false, ptr %retval, align 1
  br label %return

return:                                           ; preds = %for.end, %if.end
  %15 = load i1, ptr %retval, align 1
  ret i1 %15
}