; Function Attrs: mustprogress uwtable
define hidden noundef zeroext i1 @_Z6lex_ltjPKP3astS2_(i32 noundef %num, ptr nocapture noundef readonly %n1, ptr nocapture noundef readonly %n2) local_unnamed_addr #3 {
entry:
  %cmp10.not = icmp eq i32 %num, 0
  br i1 %cmp10.not, label %return, label %for.body.preheader

for.body.preheader:                               ; preds = %entry
  %wide.trip.count = zext i32 %num to i64
  br label %for.body

for.cond:                                         ; preds = %for.body
  %indvars.iv.next = add nuw nsw i64 %indvars.iv, 1
  %exitcond.not = icmp eq i64 %indvars.iv.next, %wide.trip.count
  br i1 %exitcond.not, label %return, label %for.body, !llvm.loop !13

for.body:                                         ; preds = %for.body.preheader, %for.cond
  %indvars.iv = phi i64 [ 0, %for.body.preheader ], [ %indvars.iv.next, %for.cond ]
  %arrayidx = getelementptr inbounds ptr, ptr %n1, i64 %indvars.iv
  %0 = load ptr, ptr %arrayidx, align 8
  %arrayidx2 = getelementptr inbounds ptr, ptr %n2, i64 %indvars.iv
  %1 = load ptr, ptr %arrayidx2, align 8
  %cmp3 = icmp eq ptr %0, %1
  br i1 %cmp3, label %for.cond, label %if.end

if.end:                                           ; preds = %for.body
  %call = tail call noundef zeroext i1 @_Z2ltP3astS0_(ptr noundef %0, ptr noundef %1)
  br label %return

return:                                           ; preds = %for.cond, %entry, %if.end
  %retval.0 = phi i1 [ %call, %if.end ], [ false, %entry ], [ false, %for.cond ]
  ret i1 %retval.0
}